target datalayout = "e-m:e-p270:32:32-p271:32:32-p272:64:64-i64:64-i128:128-f80:128-n8:16:32:64-S128"
target triple = "x86_64-pc-linux-gnu"

; Function Attrs: nounwind uwtable
define void @ff_faanidct_add(ptr noundef %0, i64 noundef %1, ptr noundef %2) #0 {
  %4 = alloca ptr, align 8
  %5 = alloca i64, align 8
  %6 = alloca ptr, align 8
  %7 = alloca [64 x float], align 16
  %8 = alloca i32, align 4
  store ptr %0, ptr %4, align 8, !tbaa !19
  store i64 %1, ptr %5, align 8, !tbaa !21
  store ptr %2, ptr %6, align 8, !tbaa !4
  call void @llvm.lifetime.start.p0(i64 256, ptr %7) #5
  call void @llvm.lifetime.start.p0(i64 4, ptr %8) #5
  br label %9

9:                                                ; preds = %3
  br label %10

10:                                               ; preds = %9
  br label %11

11:                                               ; preds = %10
  store i32 0, ptr %8, align 4, !tbaa !9
  br label %12

12:                                               ; preds = %31, %11
  %13 = load i32, ptr %8, align 4, !tbaa !9
  %14 = icmp slt i32 %13, 64
  br i1 %14, label %15, label %34

15:                                               ; preds = %12
  %16 = load ptr, ptr %6, align 8, !tbaa !4
  %17 = load i32, ptr %8, align 4, !tbaa !9
  %18 = sext i32 %17 to i64
  %19 = getelementptr inbounds i16, ptr %16, i64 %18
  %20 = load i16, ptr %19, align 2, !tbaa !11
  %21 = sext i16 %20 to i32
  %22 = sitofp i32 %21 to float
  %23 = load i32, ptr %8, align 4, !tbaa !9
  %24 = sext i32 %23 to i64
  %25 = getelementptr inbounds [64 x float], ptr @prescale, i64 0, i64 %24
  %26 = load float, ptr %25, align 4, !tbaa !13
  %27 = fmul nsz float %22, %26
  %28 = load i32, ptr %8, align 4, !tbaa !9
  %29 = sext i32 %28 to i64
  %30 = getelementptr inbounds [64 x float], ptr %7, i64 0, i64 %29
  store float %27, ptr %30, align 4, !tbaa !13
  br label %31

31:                                               ; preds = %15
  %32 = load i32, ptr %8, align 4, !tbaa !9
  %33 = add nsw i32 %32, 1
  store i32 %33, ptr %8, align 4, !tbaa !9
  br label %12, !llvm.loop !25

34:                                               ; preds = %12
  %35 = load ptr, ptr %6, align 8, !tbaa !4
  %36 = getelementptr inbounds [64 x float], ptr %7, i64 0, i64 0
  call void @p8idct(ptr noundef %35, ptr noundef %36, ptr noundef null, i64 noundef 0, i32 noundef 1, i32 noundef 8, i32 noundef 0)
  %37 = getelementptr inbounds [64 x float], ptr %7, i64 0, i64 0
  %38 = load ptr, ptr %4, align 8, !tbaa !19
  %39 = load i64, ptr %5, align 8, !tbaa !21
  call void @p8idct(ptr noundef null, ptr noundef %37, ptr noundef %38, i64 noundef %39, i32 noundef 8, i32 noundef 1, i32 noundef 2)
  call void @llvm.lifetime.end.p0(i64 4, ptr %8) #5
  call void @llvm.lifetime.end.p0(i64 256, ptr %7) #5
  ret void
}