; Function Attrs: nofree norecurse nosync nounwind memory(readwrite, inaccessiblemem: none) uwtable
define void @ff_faanidct_add(ptr noundef captures(none) %0, i64 noundef %1, ptr noundef readonly captures(none) %2) local_unnamed_addr #3 {
  %4 = alloca [64 x float], align 16
  call void @llvm.lifetime.start.p0(i64 256, ptr nonnull %4) #5
  br label %5

.preheader:                                       ; preds = %5
  %invariant.gep = getelementptr inbounds nuw i8, ptr %4, i64 4
  %invariant.gep9 = getelementptr inbounds nuw i8, ptr %4, i64 28
  %invariant.gep11 = getelementptr inbounds nuw i8, ptr %4, i64 20
  %invariant.gep13 = getelementptr inbounds nuw i8, ptr %4, i64 12
  %invariant.gep15 = getelementptr inbounds nuw i8, ptr %4, i64 8
  %invariant.gep17 = getelementptr inbounds nuw i8, ptr %4, i64 24
  %invariant.gep19 = getelementptr inbounds nuw i8, ptr %4, i64 16
  br label %13

5:                                                ; preds = %3, %5
  %indvars.iv = phi i64 [ 0, %3 ], [ %indvars.iv.next, %5 ]
  %6 = getelementptr inbounds nuw i16, ptr %2, i64 %indvars.iv
  %7 = load i16, ptr %6, align 2, !tbaa !4
  %8 = sitofp i16 %7 to float
  %9 = getelementptr inbounds nuw [64 x float], ptr @prescale, i64 0, i64 %indvars.iv
  %10 = load float, ptr %9, align 4, !tbaa !8
  %11 = fmul nsz float %10, %8
  %12 = getelementptr inbounds nuw [64 x float], ptr %4, i64 0, i64 %indvars.iv
  store float %11, ptr %12, align 4, !tbaa !8
  %indvars.iv.next = add nuw nsw i64 %indvars.iv, 1
  %exitcond.not = icmp eq i64 %indvars.iv.next, 64
  br i1 %exitcond.not, label %.preheader, label %5, !llvm.loop !14

13:                                               ; preds = %.preheader, %13
  %indvars.iv.i = phi i64 [ %indvars.iv.next.i, %13 ], [ 0, %.preheader ]
  %gep = getelementptr inbounds nuw float, ptr %invariant.gep, i64 %indvars.iv.i
  %14 = load float, ptr %gep, align 4, !tbaa !8
  %gep10 = getelementptr inbounds nuw float, ptr %invariant.gep9, i64 %indvars.iv.i
  %15 = load float, ptr %gep10, align 4, !tbaa !8
  %16 = fadd nsz float %14, %15
  %17 = fsub nsz float %14, %15
  %gep12 = getelementptr inbounds nuw float, ptr %invariant.gep11, i64 %indvars.iv.i
  %18 = load float, ptr %gep12, align 4, !tbaa !8
  %gep14 = getelementptr inbounds nuw float, ptr %invariant.gep13, i64 %indvars.iv.i
  %19 = load float, ptr %gep14, align 4, !tbaa !8
  %20 = fadd nsz float %18, %19
  %21 = fsub nsz float %18, %19
  %22 = fadd nsz float %16, %20
  %23 = fsub nsz float %16, %20
  %24 = fpext nsz float %23 to double
  %25 = fmul nsz double %24, 0x3FF6A09E667F3BCD
  %26 = fptrunc nsz double %25 to float
  %27 = fpext nsz float %17 to double
  %28 = fpext nsz float %21 to double
  %29 = fmul nsz double %28, 0xBFFD906BCF328D46
  %30 = tail call nsz double @llvm.fmuladd.f64(double %27, double 0xBFE87DE2A6AEA962, double %29)
  %31 = fptrunc nsz double %30 to float
  %32 = fmul nsz double %27, 0x3FFD906BCF328D46
  %33 = tail call nsz double @llvm.fmuladd.f64(double %28, double 0xBFE87DE2A6AEA964, double %32)
  %34 = fptrunc nsz double %33 to float
  %35 = fsub nsz float %34, %22
  %36 = fsub nsz float %26, %35
  %37 = fadd nsz float %36, %31
  %gep16 = getelementptr inbounds nuw float, ptr %invariant.gep15, i64 %indvars.iv.i
  %38 = load float, ptr %gep16, align 8, !tbaa !8
  %gep18 = getelementptr inbounds nuw float, ptr %invariant.gep17, i64 %indvars.iv.i
  %39 = load float, ptr %gep18, align 8, !tbaa !8
  %40 = fadd nsz float %38, %39
  %41 = fsub nsz float %38, %39
  %42 = fpext nsz float %41 to double
  %43 = fmul nsz double %42, 0x3FF6A09E667F3BCD
  %44 = fptrunc nsz double %43 to float
  %45 = fsub nsz float %44, %40
  %46 = getelementptr inbounds nuw float, ptr %4, i64 %indvars.iv.i
  %47 = load float, ptr %46, align 16, !tbaa !8
  %gep20 = getelementptr inbounds nuw float, ptr %invariant.gep19, i64 %indvars.iv.i
  %48 = load float, ptr %gep20, align 16, !tbaa !8
  %49 = fadd nsz float %47, %48
  %50 = fsub nsz float %47, %48
  %51 = fadd nsz float %40, %49
  %52 = fsub nsz float %49, %40
  %53 = fadd nsz float %50, %45
  %54 = fsub nsz float %50, %45
  %55 = fadd nsz float %22, %51
  store float %55, ptr %46, align 16, !tbaa !8
  %56 = fsub nsz float %51, %22
  store float %56, ptr %gep10, align 4, !tbaa !8
  %57 = fadd nsz float %35, %53
  store float %57, ptr %gep, align 4, !tbaa !8
  %58 = fsub nsz float %53, %35
  store float %58, ptr %gep18, align 8, !tbaa !8
  %59 = fadd nsz float %36, %54
  store float %59, ptr %gep16, align 8, !tbaa !8
  %60 = fsub nsz float %54, %36
  store float %60, ptr %gep12, align 4, !tbaa !8
  %61 = fsub nsz float %52, %37
  store float %61, ptr %gep14, align 4, !tbaa !8
  %62 = fadd nsz float %52, %37
  store float %62, ptr %gep20, align 16, !tbaa !8
  %indvars.iv.next.i = add nuw nsw i64 %indvars.iv.i, 8
  %63 = icmp samesign ult i64 %indvars.iv.i, 56
  br i1 %63, label %13, label %p8idct.exit, !llvm.loop !12

p8idct.exit:                                      ; preds = %13
  call fastcc void @p8idct(ptr noundef null, ptr noundef %4, ptr noundef %0, i64 noundef %1, i32 noundef 8, i32 noundef 1, i32 noundef 2)
  call void @llvm.lifetime.end.p0(i64 256, ptr nonnull %4) #5
  ret void
}